Certificate:
    Data:
        Version: 3 (0x2)
        Serial Number: 747 (0x2eb)
    Signature Algorithm: sha256WithRSAEncryption
        Issuer: C=RU, ST=Moscow, L=Moscow, O=JSCB MInB, OU=Department of security and information security, CN=Root CA/emailAddress=cert@mibnet.ru
        Validity
            Not Before: Aug 24 11:14:48 2020 GMT
            Not After : Aug 24 11:14:48 2022 GMT
        Subject: C=RU, L=DUBNA, O=Teleset ltd, OU=teleset.plus, CN=E0060035
        Subject Public Key Info:
            Public Key Algorithm: rsaEncryption
                Public-Key: (2048 bit)
                Modulus:
                    00:be:be:aa:36:9d:60:72:a5:b7:24:dc:54:34:0c:
                    aa:96:c8:4b:e7:79:e4:e4:9c:2b:de:4b:09:b7:f9:
                    36:37:8e:84:f3:fb:a2:73:86:f7:fd:db:40:db:54:
                    89:6b:58:36:b0:08:b8:5b:6f:a1:88:13:2e:43:a9:
                    68:09:45:75:4c:1d:b0:df:0a:95:86:1d:b7:fc:b4:
                    a8:2c:fc:55:f3:3b:7c:cd:a0:8f:15:60:a4:61:c8:
                    fd:79:3e:96:af:5c:a7:7b:2c:27:94:31:4b:cf:ad:
                    1f:36:ab:3f:f3:21:84:8c:ea:e2:59:7a:71:99:bc:
                    7f:10:db:20:47:2e:0a:8f:86:0f:e5:fe:9d:68:f7:
                    9d:2f:31:a3:29:6e:12:9b:3b:d1:14:51:22:bc:d2:
                    84:84:08:33:03:8b:f0:d5:7c:c4:6c:be:dd:11:de:
                    30:a3:78:f9:ad:4d:91:63:62:2b:39:e9:e9:fa:ca:
                    67:50:0f:a4:3e:fb:24:0b:26:8f:46:f8:9b:cd:4a:
                    c5:61:4e:95:14:d6:36:d0:e5:32:ee:a0:c1:6d:b1:
                    b5:b8:61:db:f6:94:10:b6:e2:cc:4f:c1:23:d9:cf:
                    7b:71:ef:3f:e5:7a:cf:83:02:d9:e3:41:ed:b8:10:
                    d1:68:f5:49:1b:99:98:77:93:62:7c:aa:8c:00:ce:
                    8a:97
                Exponent: 65537 (0x10001)
        X509v3 extensions:
            X509v3 Basic Constraints: 
                CA:FALSE
            X509v3 Key Usage: 
                Digital Signature, Non Repudiation, Key Encipherment, Data Encipherment, Key Agreement, Certificate Sign
            Netscape Comment: 
                OpenSSL Generated Certificate
            X509v3 Subject Key Identifier: 
                6E:6A:E5:42:25:5C:DF:7E:C4:B8:57:90:7E:27:BB:A2:AA:9D:F7:D4
            X509v3 Authority Key Identifier: 
                keyid:40:0A:6F:94:AC:91:B0:D4:A9:C9:0B:24:41:93:3E:6B:ED:BF:F1:D0

    Signature Algorithm: sha256WithRSAEncryption
         15:62:a8:f2:64:fb:6d:ce:46:f1:db:ec:e3:5c:3a:45:66:17:
         37:09:17:53:51:12:c1:e1:0b:cd:4d:91:9f:01:d6:cf:5c:35:
         12:dc:25:a8:26:7c:e7:94:28:75:48:31:e6:cb:1d:9a:3b:fe:
         54:a8:25:29:a2:41:36:e3:98:82:17:2f:93:16:54:24:7e:29:
         bb:2f:92:32:ca:2a:e5:5c:5a:b7:17:09:f0:47:02:26:97:37:
         fd:06:75:55:c1:f8:30:61:e2:cf:b4:45:5c:81:40:a0:a5:30:
         91:85:82:15:cb:16:73:52:03:c9:dc:61:ba:3a:8e:3f:f9:ad:
         40:20
-----BEGIN CERTIFICATE-----
MIIDkTCCAvqgAwIBAgICAuswDQYJKoZIhvcNAQELBQAwga4xCzAJBgNVBAYTAlJV
MQ8wDQYDVQQIEwZNb3Njb3cxDzANBgNVBAcTBk1vc2NvdzESMBAGA1UEChMJSlND
QiBNSW5CMTgwNgYDVQQLEy9EZXBhcnRtZW50IG9mIHNlY3VyaXR5IGFuZCBpbmZv
cm1hdGlvbiBzZWN1cml0eTEQMA4GA1UEAxMHUm9vdCBDQTEdMBsGCSqGSIb3DQEJ
ARYOY2VydEBtaWJuZXQucnUwHhcNMjAwODI0MTExNDQ4WhcNMjIwODI0MTExNDQ4
WjBdMQswCQYDVQQGEwJSVTEOMAwGA1UEBwwFRFVCTkExFDASBgNVBAoMC1RlbGVz
ZXQgbHRkMRUwEwYDVQQLDAx0ZWxlc2V0LnBsdXMxETAPBgNVBAMMCEUwMDYwMDM1
MIIBIjANBgkqhkiG9w0BAQEFAAOCAQ8AMIIBCgKCAQEAvr6qNp1gcqW3JNxUNAyq
lshL53nk5Jwr3ksJt/k2N46E8/uic4b3/dtA21SJa1g2sAi4W2+hiBMuQ6loCUV1
TB2w3wqVhh23/LSoLPxV8zt8zaCPFWCkYcj9eT6Wr1yneywnlDFLz60fNqs/8yGE
jOriWXpxmbx/ENsgRy4Kj4YP5f6daPedLzGjKW4SmzvRFFEivNKEhAgzA4vw1XzE
bL7dEd4wo3j5rU2RY2IrOenp+spnUA+kPvskCyaPRvibzUrFYU6VFNY20OUy7qDB
bbG1uGHb9pQQtuLMT8Ej2c97ce8/5XrPgwLZ40HtuBDRaPVJG5mYd5NifKqMAM6K
lwIDAQABo4GJMIGGMAkGA1UdEwQCMAAwCwYDVR0PBAQDAgL8MCwGCWCGSAGG+EIB
DQQfFh1PcGVuU1NMIEdlbmVyYXRlZCBDZXJ0aWZpY2F0ZTAdBgNVHQ4EFgQUbmrl
QiVc337EuFeQfie7oqqd99QwHwYDVR0jBBgwFoAUQApvlKyRsNSpyQskQZM+a+2/
8dAwDQYJKoZIhvcNAQELBQADgYEAFWKo8mT7bc5G8dvs41w6RWYXNwkXU1ESweEL
zU2RnwHWz1w1EtwlqCZ855QodUgx5ssdmjv+VKglKaJBNuOYghcvkxZUJH4puy+S
Msoq5VxatxcJ8EcCJpc3/QZ1VcH4MGHiz7RFXIFAoKUwkYWCFcsWc1IDydxhujqO
P/mtQCA=
-----END CERTIFICATE-----
